target datalayout = "e-m:e-p270:32:32-p271:32:32-p272:64:64-i64:64-i128:128-f80:128-n8:16:32:64-S128"
target triple = "x86_64-pc-linux-gnu"

@.str.1 = private unnamed_addr constant [12 x i8] c"extension.c\00", align 1
@.str.10 = private unnamed_addr constant [3 x i8] c"--\00", align 1
@.str.31 = private unnamed_addr constant [29 x i8] c"invalid extension name: \22%s\22\00", align 1
@.str.32 = private unnamed_addr constant [35 x i8] c"Extension names must not be empty.\00", align 1
@__func__.check_valid_extension_name = private unnamed_addr constant [27 x i8] c"check_valid_extension_name\00", align 1
@.str.33 = private unnamed_addr constant [39 x i8] c"Extension names must not contain \22--\22.\00", align 1
@.str.34 = private unnamed_addr constant [48 x i8] c"Extension names must not begin or end with \22-\22.\00", align 1
@.str.35 = private unnamed_addr constant [65 x i8] c"Extension names must not contain directory separator characters.\00", align 1

; Function Attrs: nounwind uwtable
define internal void @check_valid_extension_name(ptr noundef %0) #0 {
  %2 = alloca ptr, align 8
  %3 = alloca i32, align 4
  store ptr %0, ptr %2, align 8
  call void @llvm.lifetime.start.p0(i64 4, ptr %3) #12
  %4 = load ptr, ptr %2, align 8
  %5 = call i64 @strlen(ptr noundef %4) #14
  %6 = trunc i64 %5 to i32
  store i32 %6, ptr %3, align 4
  %7 = load i32, ptr %3, align 4
  %8 = icmp eq i32 %7, 0
  br i1 %8, label %9, label %23

9:                                                ; preds = %1
  br label %10

10:                                               ; preds = %9
  br i1 true, label %11, label %13

11:                                               ; preds = %10
  %12 = call zeroext i1 @errstart_cold(i32 noundef 21, ptr noundef null) #13
  br i1 %12, label %15, label %20

13:                                               ; preds = %10
  %14 = call zeroext i1 @errstart(i32 noundef 21, ptr noundef null)
  br i1 %14, label %15, label %20

15:                                               ; preds = %13, %11
  %16 = call i32 @errcode(i32 noundef 50856066)
  %17 = load ptr, ptr %2, align 8
  %18 = call i32 (ptr, ...) @errmsg(ptr noundef @.str.31, ptr noundef %17)
  %19 = call i32 (ptr, ...) @errdetail(ptr noundef @.str.32)
  call void @errfinish(ptr noundef @.str.1, i32 noundef 234, ptr noundef @__func__.check_valid_extension_name)
  br label %20

20:                                               ; preds = %15, %13, %11
  unreachable

21:                                               ; No predecessors!
  br label %22

22:                                               ; preds = %21
  br label %23

23:                                               ; preds = %22, %1
  %24 = load ptr, ptr %2, align 8
  %25 = call ptr @strstr(ptr noundef %24, ptr noundef @.str.10) #14
  %26 = icmp ne ptr %25, null
  br i1 %26, label %27, label %41

27:                                               ; preds = %23
  br label %28

28:                                               ; preds = %27
  br i1 true, label %29, label %31

29:                                               ; preds = %28
  %30 = call zeroext i1 @errstart_cold(i32 noundef 21, ptr noundef null) #13
  br i1 %30, label %33, label %38

31:                                               ; preds = %28
  %32 = call zeroext i1 @errstart(i32 noundef 21, ptr noundef null)
  br i1 %32, label %33, label %38

33:                                               ; preds = %31, %29
  %34 = call i32 @errcode(i32 noundef 50856066)
  %35 = load ptr, ptr %2, align 8
  %36 = call i32 (ptr, ...) @errmsg(ptr noundef @.str.31, ptr noundef %35)
  %37 = call i32 (ptr, ...) @errdetail(ptr noundef @.str.33)
  call void @errfinish(ptr noundef @.str.1, i32 noundef 243, ptr noundef @__func__.check_valid_extension_name)
  br label %38

38:                                               ; preds = %33, %31, %29
  unreachable

39:                                               ; No predecessors!
  br label %40

40:                                               ; preds = %39
  br label %41

41:                                               ; preds = %40, %23
  %42 = load ptr, ptr %2, align 8
  %43 = getelementptr inbounds i8, ptr %42, i64 0
  %44 = load i8, ptr %43, align 1
  %45 = sext i8 %44 to i32
  %46 = icmp eq i32 %45, 45
  br i1 %46, label %56, label %47

47:                                               ; preds = %41
  %48 = load ptr, ptr %2, align 8
  %49 = load i32, ptr %3, align 4
  %50 = sub i32 %49, 1
  %51 = sext i32 %50 to i64
  %52 = getelementptr inbounds i8, ptr %48, i64 %51
  %53 = load i8, ptr %52, align 1
  %54 = sext i8 %53 to i32
  %55 = icmp eq i32 %54, 45
  br i1 %55, label %56, label %70

56:                                               ; preds = %47, %41
  br label %57

57:                                               ; preds = %56
  br i1 true, label %58, label %60

58:                                               ; preds = %57
  %59 = call zeroext i1 @errstart_cold(i32 noundef 21, ptr noundef null) #13
  br i1 %59, label %62, label %67

60:                                               ; preds = %57
  %61 = call zeroext i1 @errstart(i32 noundef 21, ptr noundef null)
  br i1 %61, label %62, label %67

62:                                               ; preds = %60, %58
  %63 = call i32 @errcode(i32 noundef 50856066)
  %64 = load ptr, ptr %2, align 8
  %65 = call i32 (ptr, ...) @errmsg(ptr noundef @.str.31, ptr noundef %64)
  %66 = call i32 (ptr, ...) @errdetail(ptr noundef @.str.34)
  call void @errfinish(ptr noundef @.str.1, i32 noundef 255, ptr noundef @__func__.check_valid_extension_name)
  br label %67

67:                                               ; preds = %62, %60, %58
  unreachable

68:                                               ; No predecessors!
  br label %69

69:                                               ; preds = %68
  br label %70

70:                                               ; preds = %69, %47
  %71 = load ptr, ptr %2, align 8
  %72 = call ptr @first_dir_separator(ptr noundef %71)
  %73 = icmp ne ptr %72, null
  br i1 %73, label %74, label %88

74:                                               ; preds = %70
  br label %75

75:                                               ; preds = %74
  br i1 true, label %76, label %78

76:                                               ; preds = %75
  %77 = call zeroext i1 @errstart_cold(i32 noundef 21, ptr noundef null) #13
  br i1 %77, label %80, label %85

78:                                               ; preds = %75
  %79 = call zeroext i1 @errstart(i32 noundef 21, ptr noundef null)
  br i1 %79, label %80, label %85

80:                                               ; preds = %78, %76
  %81 = call i32 @errcode(i32 noundef 50856066)
  %82 = load ptr, ptr %2, align 8
  %83 = call i32 (ptr, ...) @errmsg(ptr noundef @.str.31, ptr noundef %82)
  %84 = call i32 (ptr, ...) @errdetail(ptr noundef @.str.35)
  call void @errfinish(ptr noundef @.str.1, i32 noundef 265, ptr noundef @__func__.check_valid_extension_name)
  br label %85

85:                                               ; preds = %80, %78, %76
  unreachable

86:                                               ; No predecessors!
  br label %87

87:                                               ; preds = %86
  br label %88

88:                                               ; preds = %87, %70
  call void @llvm.lifetime.end.p0(i64 4, ptr %3) #12
  ret void
}