; Function Attrs: nounwind uwtable
define internal fastcc void @check_valid_extension_name(ptr noundef %0) unnamed_addr #0 {
  %2 = tail call i64 @strlen(ptr noundef nonnull dereferenceable(1) %0) #17
  %3 = and i64 %2, 4294967295
  %4 = icmp eq i64 %3, 0
  br i1 %4, label %5, label %10

5:                                                ; preds = %1
  %6 = tail call zeroext i1 @errstart_cold(i32 noundef 21, ptr noundef null) #16
  tail call void @llvm.assume(i1 %6)
  %7 = tail call i32 @errcode(i32 noundef 50856066) #15
  %8 = tail call i32 (ptr, ...) @errmsg(ptr noundef nonnull @.str.31, ptr noundef nonnull %0) #15
  %9 = tail call i32 (ptr, ...) @errdetail(ptr noundef nonnull @.str.32) #15
  tail call void @errfinish(ptr noundef nonnull @.str.1, i32 noundef 234, ptr noundef nonnull @__func__.check_valid_extension_name) #15
  unreachable

10:                                               ; preds = %1
  %11 = tail call ptr @strstr(ptr noundef nonnull dereferenceable(1) %0, ptr noundef nonnull dereferenceable(1) @.str.10) #17
  %.not = icmp eq ptr %11, null
  br i1 %.not, label %17, label %12

12:                                               ; preds = %10
  %13 = tail call zeroext i1 @errstart_cold(i32 noundef 21, ptr noundef null) #16
  tail call void @llvm.assume(i1 %13)
  %14 = tail call i32 @errcode(i32 noundef 50856066) #15
  %15 = tail call i32 (ptr, ...) @errmsg(ptr noundef nonnull @.str.31, ptr noundef nonnull %0) #15
  %16 = tail call i32 (ptr, ...) @errdetail(ptr noundef nonnull @.str.33) #15
  tail call void @errfinish(ptr noundef nonnull @.str.1, i32 noundef 243, ptr noundef nonnull @__func__.check_valid_extension_name) #15
  unreachable

17:                                               ; preds = %10
  %18 = load i8, ptr %0, align 1
  %19 = icmp eq i8 %18, 45
  br i1 %19, label %26, label %20

20:                                               ; preds = %17
  %21 = shl i64 %2, 32
  %sext = add i64 %21, -4294967296
  %22 = ashr exact i64 %sext, 32
  %23 = getelementptr inbounds i8, ptr %0, i64 %22
  %24 = load i8, ptr %23, align 1
  %25 = icmp eq i8 %24, 45
  br i1 %25, label %26, label %31

26:                                               ; preds = %20, %17
  %27 = tail call zeroext i1 @errstart_cold(i32 noundef 21, ptr noundef null) #16
  tail call void @llvm.assume(i1 %27)
  %28 = tail call i32 @errcode(i32 noundef 50856066) #15
  %29 = tail call i32 (ptr, ...) @errmsg(ptr noundef nonnull @.str.31, ptr noundef nonnull %0) #15
  %30 = tail call i32 (ptr, ...) @errdetail(ptr noundef nonnull @.str.34) #15
  tail call void @errfinish(ptr noundef nonnull @.str.1, i32 noundef 255, ptr noundef nonnull @__func__.check_valid_extension_name) #15
  unreachable

31:                                               ; preds = %20
  %32 = tail call ptr @first_dir_separator(ptr noundef nonnull %0) #15
  %.not10 = icmp eq ptr %32, null
  br i1 %.not10, label %38, label %33

33:                                               ; preds = %31
  %34 = tail call zeroext i1 @errstart_cold(i32 noundef 21, ptr noundef null) #16
  tail call void @llvm.assume(i1 %34)
  %35 = tail call i32 @errcode(i32 noundef 50856066) #15
  %36 = tail call i32 (ptr, ...) @errmsg(ptr noundef nonnull @.str.31, ptr noundef nonnull %0) #15
  %37 = tail call i32 (ptr, ...) @errdetail(ptr noundef nonnull @.str.35) #15
  tail call void @errfinish(ptr noundef nonnull @.str.1, i32 noundef 265, ptr noundef nonnull @__func__.check_valid_extension_name) #15
  unreachable

38:                                               ; preds = %31
  ret void
}